; Function Attrs: mustprogress nofree norecurse nosync nounwind willreturn memory(read, inaccessiblemem: none) uwtable
define hidden noundef zeroext i1 @_ZN3smt10theory_seq13can_propagateEv(ptr nocapture noundef nonnull readonly align 8 dereferenceable(4328) %this) unnamed_addr #4 align 2 {
entry:
  %m_nodes.i = getelementptr inbounds i8, ptr %this, i64 1000
  %0 = load ptr, ptr %m_nodes.i, align 8
  %cmp.i.i = icmp eq ptr %0, null
  br i1 %cmp.i.i, label %lor.lhs.false, label %_ZNK15ref_vector_coreI4expr19ref_manager_wrapperIS0_11ast_managerEE4sizeEv.exit

_ZNK15ref_vector_coreI4expr19ref_manager_wrapperIS0_11ast_managerEE4sizeEv.exit: ; preds = %entry
  %m_axioms_head = getelementptr inbounds i8, ptr %this, i64 1032
  %1 = load i32, ptr %m_axioms_head, align 8
  %arrayidx.i.i = getelementptr inbounds i8, ptr %0, i64 -4
  %2 = load i32, ptr %arrayidx.i.i, align 4
  %cmp = icmp ult i32 %1, %2
  br i1 %cmp, label %lor.end, label %lor.lhs.false

lor.lhs.false:                                    ; preds = %entry, %_ZNK15ref_vector_coreI4expr19ref_manager_wrapperIS0_11ast_managerEE4sizeEv.exit
  %m_replay = getelementptr inbounds i8, ptr %this, i64 1176
  %3 = load ptr, ptr %m_replay, align 8
  %cmp.i.i1 = icmp eq ptr %3, null
  br i1 %cmp.i.i1, label %lor.lhs.false3, label %_ZNK17scoped_ptr_vectorIN3smt10theory_seq5applyEE5emptyEv.exit

_ZNK17scoped_ptr_vectorIN3smt10theory_seq5applyEE5emptyEv.exit: ; preds = %lor.lhs.false
  %arrayidx.i.i2 = getelementptr inbounds i8, ptr %3, i64 -4
  %4 = load i32, ptr %arrayidx.i.i2, align 4
  %cmp3.i.i = icmp eq i32 %4, 0
  br i1 %cmp3.i.i, label %lor.lhs.false3, label %lor.end

lor.lhs.false3:                                   ; preds = %lor.lhs.false, %_ZNK17scoped_ptr_vectorIN3smt10theory_seq5applyEE5emptyEv.exit
  %m_new_solution = getelementptr inbounds i8, ptr %this, i64 4201
  %5 = load i8, ptr %m_new_solution, align 1
  %6 = and i8 %5, 1
  %tobool.not = icmp ne i8 %6, 0
  br label %lor.end

lor.end:                                          ; preds = %lor.lhs.false3, %_ZNK17scoped_ptr_vectorIN3smt10theory_seq5applyEE5emptyEv.exit, %_ZNK15ref_vector_coreI4expr19ref_manager_wrapperIS0_11ast_managerEE4sizeEv.exit
  %7 = phi i1 [ true, %_ZNK17scoped_ptr_vectorIN3smt10theory_seq5applyEE5emptyEv.exit ], [ true, %_ZNK15ref_vector_coreI4expr19ref_manager_wrapperIS0_11ast_managerEE4sizeEv.exit ], [ %tobool.not, %lor.lhs.false3 ]
  ret i1 %7
}